; Function Attrs: null_pointer_is_valid sspstrong uwtable
define hidden void @set_pdcp_nr_up_ciphering_key(i16 noundef zeroext %0, ptr noundef %1, i32 noundef %2) local_unnamed_addr #0 {
  %4 = alloca ptr, align 8
  call void @llvm.lifetime.start.p0(i64 8, ptr nonnull %4) #15
  store ptr null, ptr %4, align 8
  %5 = load ptr, ptr @pdcp_security_key_hash, align 8
  %6 = zext i16 %0 to i64
  %7 = inttoptr i64 %6 to ptr
  %8 = tail call ptr @wmem_map_lookup(ptr noundef %5, ptr noundef %7)
  %9 = icmp eq ptr %8, null
  br i1 %9, label %10, label %15

10:                                               ; preds = %3
  %11 = tail call ptr @wmem_file_scope()
  %12 = tail call noalias dereferenceable_or_null(1288) ptr @wmem_alloc0(ptr noundef %11, i64 noundef 1288) #16
  %13 = load ptr, ptr @pdcp_security_key_hash, align 8
  %14 = tail call ptr @wmem_map_insert(ptr noundef %13, ptr noundef %7, ptr noundef %12)
  br label %15

15:                                               ; preds = %10, %3
  %.0 = phi ptr [ %12, %10 ], [ %8, %3 ]
  %16 = load i32, ptr %.0, align 8
  %17 = icmp eq i32 %16, 32
  br i1 %17, label %30, label %18

18:                                               ; preds = %15
  %19 = getelementptr inbounds nuw i8, ptr %.0, i64 8
  %20 = add i32 %16, 1
  store i32 %20, ptr %.0, align 8
  %21 = zext i32 %16 to i64
  %22 = getelementptr [32 x %struct.key_entry_t], ptr %19, i64 0, i64 %21
  store i32 2, ptr %22, align 8
  %23 = tail call noalias ptr @g_strdup(ptr noundef %1)
  %24 = getelementptr inbounds nuw i8, ptr %22, i64 8
  store ptr %23, ptr %24, align 8
  %25 = getelementptr inbounds nuw i8, ptr %22, i64 36
  store i32 %2, ptr %25, align 4
  %26 = getelementptr inbounds nuw i8, ptr %22, i64 16
  %27 = getelementptr inbounds nuw i8, ptr %22, i64 32
  call fastcc void @update_key_from_string(ptr noundef %23, ptr noundef nonnull %26, ptr noundef nonnull %27, ptr noundef nonnull %4)
  %28 = load ptr, ptr %4, align 8
  %.not = icmp eq ptr %28, null
  br i1 %.not, label %30, label %29

29:                                               ; preds = %18
  tail call void (ptr, ...) @report_failure(ptr noundef nonnull @.str.2, ptr noundef nonnull %28)
  tail call void @g_free(ptr noundef nonnull %28)
  br label %30

30:                                               ; preds = %18, %29, %15
  call void @llvm.lifetime.end.p0(i64 8, ptr nonnull %4) #15
  ret void
}